target datalayout = "e-m:e-p270:32:32-p271:32:32-p272:64:64-i64:64-i128:128-f80:128-n8:16:32:64-S128"
target triple = "x86_64-pc-linux-gnu"

; Function Attrs: nounwind uwtable
define i32 @H5LTget_attribute_string(i64 noundef %0, ptr noundef %1, ptr noundef %2, ptr noundef %3) #0 {
  %5 = alloca i32, align 4
  %6 = alloca i64, align 8
  %7 = alloca ptr, align 8
  %8 = alloca ptr, align 8
  %9 = alloca ptr, align 8
  %10 = alloca i64, align 8
  %11 = alloca i32, align 4
  store i64 %0, ptr %6, align 8, !tbaa !3
  store ptr %1, ptr %7, align 8, !tbaa !7
  store ptr %2, ptr %8, align 8, !tbaa !7
  store ptr %3, ptr %9, align 8, !tbaa !7
  call void @llvm.lifetime.start.p0(i64 8, ptr %10) #11
  %12 = load ptr, ptr %7, align 8, !tbaa !7
  %13 = icmp eq ptr %12, null
  br i1 %13, label %14, label %15

14:                                               ; preds = %4
  store i32 -1, ptr %5, align 4
  store i32 1, ptr %11, align 4
  br label %40

15:                                               ; preds = %4
  %16 = load ptr, ptr %8, align 8, !tbaa !7
  %17 = icmp eq ptr %16, null
  br i1 %17, label %18, label %19

18:                                               ; preds = %15
  store i32 -1, ptr %5, align 4
  store i32 1, ptr %11, align 4
  br label %40

19:                                               ; preds = %15
  %20 = load i64, ptr %6, align 8, !tbaa !3
  %21 = load ptr, ptr %7, align 8, !tbaa !7
  %22 = call i64 @H5Oopen(i64 noundef %20, ptr noundef %21, i64 noundef 0)
  store i64 %22, ptr %10, align 8, !tbaa !3
  %23 = icmp slt i64 %22, 0
  br i1 %23, label %24, label %25

24:                                               ; preds = %19
  store i32 -1, ptr %5, align 4
  store i32 1, ptr %11, align 4
  br label %40

25:                                               ; preds = %19
  %26 = load i64, ptr %10, align 8, !tbaa !3
  %27 = load ptr, ptr %8, align 8, !tbaa !7
  %28 = load ptr, ptr %9, align 8, !tbaa !7
  %29 = call i32 @H5LT_get_attribute_disk(i64 noundef %26, ptr noundef %27, ptr noundef %28)
  %30 = icmp slt i32 %29, 0
  br i1 %30, label %31, label %34

31:                                               ; preds = %25
  %32 = load i64, ptr %10, align 8, !tbaa !3
  %33 = call i32 @H5Oclose(i64 noundef %32)
  store i32 -1, ptr %5, align 4
  store i32 1, ptr %11, align 4
  br label %40

34:                                               ; preds = %25
  %35 = load i64, ptr %10, align 8, !tbaa !3
  %36 = call i32 @H5Oclose(i64 noundef %35)
  %37 = icmp slt i32 %36, 0
  br i1 %37, label %38, label %39

38:                                               ; preds = %34
  store i32 -1, ptr %5, align 4
  store i32 1, ptr %11, align 4
  br label %40

39:                                               ; preds = %34
  store i32 0, ptr %5, align 4
  store i32 1, ptr %11, align 4
  br label %40

40:                                               ; preds = %39, %38, %31, %24, %18, %14
  call void @llvm.lifetime.end.p0(i64 8, ptr %10) #11
  %41 = load i32, ptr %5, align 4
  ret i32 %41
}