; Function Attrs: nounwind uwtable
define range(i32 -1, 1) i32 @H5LTget_attribute_string(i64 noundef %0, ptr noundef %1, ptr noundef %2, ptr noundef %3) local_unnamed_addr #0 {
  %5 = icmp eq ptr %1, null
  %6 = icmp eq ptr %2, null
  %or.cond = or i1 %5, %6
  br i1 %or.cond, label %13, label %7

7:                                                ; preds = %4
  %8 = tail call i64 @H5Oopen(i64 noundef %0, ptr noundef nonnull %1, i64 noundef 0) #20
  %9 = icmp slt i64 %8, 0
  br i1 %9, label %13, label %10

10:                                               ; preds = %7
  %11 = tail call i32 @H5LT_get_attribute_disk(i64 noundef %8, ptr noundef nonnull %2, ptr noundef %3)
  %12 = tail call i32 @H5Oclose(i64 noundef %8) #20
  %.lobit = ashr i32 %12, 31
  %.inv = icmp sgt i32 %11, -1
  %spec.select = select i1 %.inv, i32 %.lobit, i32 -1
  br label %13

13:                                               ; preds = %10, %7, %4
  %.0 = phi i32 [ -1, %4 ], [ -1, %7 ], [ %spec.select, %10 ]
  ret i32 %.0
}